target datalayout = "e-m:e-p270:32:32-p271:32:32-p272:64:64-i64:64-i128:128-f80:128-n8:16:32:64-S128"
target triple = "x86_64-pc-linux-gnu"

%"class.Ipopt::GenTMatrix" = type <{ %"class.Ipopt::Matrix.base", [3 x i8], ptr, ptr, i8, [7 x i8] }>
%"class.Ipopt::Matrix.base" = type <{ %"class.Ipopt::TaggedObject", %"class.Ipopt::SmartPtr", i32, i8 }>
%"class.Ipopt::TaggedObject" = type { %"class.Ipopt::ReferencedObject.base", %"class.Ipopt::Subject", i32, i32 }
%"class.Ipopt::ReferencedObject.base" = type <{ ptr, i32 }>
%"class.Ipopt::Subject" = type { ptr, %"class.std::vector" }
%"class.std::vector" = type { %"struct.std::_Vector_base" }
%"struct.std::_Vector_base" = type { %"struct.std::_Vector_base<Ipopt::Observer *, std::allocator<Ipopt::Observer *>>::_Vector_impl" }
%"struct.std::_Vector_base<Ipopt::Observer *, std::allocator<Ipopt::Observer *>>::_Vector_impl" = type { %"struct.std::_Vector_base<Ipopt::Observer *, std::allocator<Ipopt::Observer *>>::_Vector_impl_data" }
%"struct.std::_Vector_base<Ipopt::Observer *, std::allocator<Ipopt::Observer *>>::_Vector_impl_data" = type { ptr, ptr, ptr }
%"class.Ipopt::SmartPtr" = type { ptr }
%"class.Ipopt::Matrix" = type <{ %"class.Ipopt::TaggedObject", %"class.Ipopt::SmartPtr", i32, i8, [3 x i8] }>
%"class.Ipopt::DenseVector" = type { %"class.Ipopt::Vector.base", ptr, ptr, ptr, i8, i8, double }
%"class.Ipopt::Vector.base" = type <{ %"class.Ipopt::TaggedObject", %"class.Ipopt::SmartPtr.0", %"class.Ipopt::CachedResults", i32, [4 x i8], double, i32, [4 x i8], double, i32, [4 x i8], double, i32, [4 x i8], double, i32, [4 x i8], double, i32, [4 x i8], double, i32, [4 x i8], double, i32, i8 }>
%"class.Ipopt::SmartPtr.0" = type { ptr }
%"class.Ipopt::CachedResults" = type { ptr, i32, ptr }
%"class.Ipopt::GenTMatrixSpace" = type { %"class.Ipopt::MatrixSpace.base", i32, ptr, ptr }
%"class.Ipopt::MatrixSpace.base" = type { %"class.Ipopt::ReferencedObject.base", i32, i32 }
%"class.Ipopt::MatrixSpace" = type { %"class.Ipopt::ReferencedObject.base", i32, i32, [4 x i8] }
%"class.Ipopt::VectorSpace" = type { %"class.Ipopt::ReferencedObject.base", i32 }

; Function Attrs: mustprogress nounwind uwtable
define linkonce_odr noundef i32 @_ZNK5Ipopt11VectorSpace3DimEv(ptr noundef nonnull align 8 dereferenceable(16) %0) #1 comdat align 2 {
  %2 = alloca ptr, align 8
  store ptr %0, ptr %2, align 8
  %3 = load ptr, ptr %2, align 8
  %4 = getelementptr inbounds %"class.Ipopt::VectorSpace", ptr %3, i32 0, i32 1
  %5 = load i32, ptr %4, align 4
  ret i32 %5
}

; Function Attrs: mustprogress uwtable
define linkonce_odr noundef ptr @_ZNK5Ipopt16DenseVectorSpace23AllocateInternalStorageEv(ptr noundef nonnull align 8 dereferenceable(160) %0) #0 comdat align 2 {
  %2 = alloca ptr, align 8
  %3 = alloca ptr, align 8
  store ptr %0, ptr %3, align 8
  %4 = load ptr, ptr %3, align 8
  %5 = call noundef i32 @_ZNK5Ipopt11VectorSpace3DimEv(ptr noundef nonnull align 8 dereferenceable(16) %4)
  %6 = icmp sgt i32 %5, 0
  br i1 %6, label %7, label %15

7:                                                ; preds = %1
  %8 = call noundef i32 @_ZNK5Ipopt11VectorSpace3DimEv(ptr noundef nonnull align 8 dereferenceable(16) %4)
  %9 = sext i32 %8 to i64
  %10 = call { i64, i1 } @llvm.umul.with.overflow.i64(i64 %9, i64 8)
  %11 = extractvalue { i64, i1 } %10, 1
  %12 = extractvalue { i64, i1 } %10, 0
  %13 = select i1 %11, i64 -1, i64 %12
  %14 = call noalias noundef nonnull ptr @_Znam(i64 noundef %13) #12
  store ptr %14, ptr %2, align 8
  br label %16

15:                                               ; preds = %1
  store ptr null, ptr %2, align 8
  br label %16

16:                                               ; preds = %15, %7
  %17 = load ptr, ptr %2, align 8
  ret ptr %17
}

; Function Attrs: mustprogress nounwind uwtable
define linkonce_odr noundef nonnull align 8 dereferenceable(8) ptr @_ZSt3maxIdERKT_S2_S2_(ptr noundef nonnull align 8 dereferenceable(8) %0, ptr noundef nonnull align 8 dereferenceable(8) %1) #1 comdat {
  %3 = alloca ptr, align 8
  %4 = alloca ptr, align 8
  %5 = alloca ptr, align 8
  store ptr %0, ptr %4, align 8
  store ptr %1, ptr %5, align 8
  %6 = load ptr, ptr %4, align 8
  %7 = load double, ptr %6, align 8
  %8 = load ptr, ptr %5, align 8
  %9 = load double, ptr %8, align 8
  %10 = fcmp olt double %7, %9
  br i1 %10, label %11, label %13

11:                                               ; preds = %2
  %12 = load ptr, ptr %5, align 8
  store ptr %12, ptr %3, align 8
  br label %15

13:                                               ; preds = %2
  %14 = load ptr, ptr %4, align 8
  store ptr %14, ptr %3, align 8
  br label %15

15:                                               ; preds = %13, %11
  %16 = load ptr, ptr %3, align 8
  ret ptr %16
}

; Function Attrs: mustprogress nounwind uwtable
define linkonce_odr noundef i32 @_ZNK5Ipopt15GenTMatrixSpace8NonzerosEv(ptr noundef nonnull align 8 dereferenceable(40) %0) #1 comdat align 2 {
  %2 = alloca ptr, align 8
  store ptr %0, ptr %2, align 8
  %3 = load ptr, ptr %2, align 8
  %4 = getelementptr inbounds %"class.Ipopt::GenTMatrixSpace", ptr %3, i32 0, i32 1
  %5 = load i32, ptr %4, align 4
  ret i32 %5
}

; Function Attrs: mustprogress uwtable
define linkonce_odr noundef ptr @_ZN5Ipopt11DenseVector16values_allocatedEv(ptr noundef nonnull align 8 dereferenceable(248) %0) #0 comdat align 2 {
  %2 = alloca ptr, align 8
  store ptr %0, ptr %2, align 8
  %3 = load ptr, ptr %2, align 8
  %4 = getelementptr inbounds %"class.Ipopt::DenseVector", ptr %3, i32 0, i32 2
  %5 = load ptr, ptr %4, align 8
  %6 = icmp eq ptr %5, null
  br i1 %6, label %7, label %12

7:                                                ; preds = %1
  %8 = getelementptr inbounds %"class.Ipopt::DenseVector", ptr %3, i32 0, i32 1
  %9 = load ptr, ptr %8, align 8
  %10 = call noundef ptr @_ZNK5Ipopt16DenseVectorSpace23AllocateInternalStorageEv(ptr noundef nonnull align 8 dereferenceable(160) %9)
  %11 = getelementptr inbounds %"class.Ipopt::DenseVector", ptr %3, i32 0, i32 2
  store ptr %10, ptr %11, align 8
  br label %12

12:                                               ; preds = %7, %1
  %13 = getelementptr inbounds %"class.Ipopt::DenseVector", ptr %3, i32 0, i32 2
  %14 = load ptr, ptr %13, align 8
  ret ptr %14
}

; Function Attrs: mustprogress nounwind uwtable
define linkonce_odr noundef ptr @_ZNK5Ipopt15GenTMatrixSpace5IrowsEv(ptr noundef nonnull align 8 dereferenceable(40) %0) #1 comdat align 2 {
  %2 = alloca ptr, align 8
  store ptr %0, ptr %2, align 8
  %3 = load ptr, ptr %2, align 8
  %4 = getelementptr inbounds %"class.Ipopt::GenTMatrixSpace", ptr %3, i32 0, i32 3
  %5 = load ptr, ptr %4, align 8
  ret ptr %5
}

; Function Attrs: mustprogress nounwind uwtable
define linkonce_odr noundef i32 @_ZNK5Ipopt11MatrixSpace5NRowsEv(ptr noundef nonnull align 8 dereferenceable(20) %0) #1 comdat align 2 {
  %2 = alloca ptr, align 8
  store ptr %0, ptr %2, align 8
  %3 = load ptr, ptr %2, align 8
  %4 = getelementptr inbounds %"class.Ipopt::MatrixSpace", ptr %3, i32 0, i32 1
  %5 = load i32, ptr %4, align 4
  ret i32 %5
}

; Function Attrs: mustprogress nounwind uwtable
define linkonce_odr noundef ptr @_ZNK5Ipopt8SmartPtrIKNS_11MatrixSpaceEEptEv(ptr noundef nonnull align 8 dereferenceable(8) %0) #1 comdat align 2 {
  %2 = alloca ptr, align 8
  store ptr %0, ptr %2, align 8
  %3 = load ptr, ptr %2, align 8
  %4 = getelementptr inbounds %"class.Ipopt::SmartPtr", ptr %3, i32 0, i32 0
  %5 = load ptr, ptr %4, align 8
  ret ptr %5
}

; Function Attrs: mustprogress uwtable
define linkonce_odr noundef double @_ZN5Ipopt3MaxIdEET_S1_S1_(double noundef %0, double noundef %1) #0 comdat {
  %3 = alloca double, align 8
  %4 = alloca double, align 8
  store double %0, ptr %3, align 8
  store double %1, ptr %4, align 8
  %5 = call noundef nonnull align 8 dereferenceable(8) ptr @_ZSt3maxIdERKT_S2_S2_(ptr noundef nonnull align 8 dereferenceable(8) %3, ptr noundef nonnull align 8 dereferenceable(8) %4)
  %6 = load double, ptr %5, align 8
  ret double %6
}

; Function Attrs: mustprogress nounwind uwtable
define linkonce_odr noundef double @_ZSt3absd(double noundef %0) #1 comdat {
  %2 = alloca double, align 8
  store double %0, ptr %2, align 8
  %3 = load double, ptr %2, align 8
  %4 = call double @llvm.fabs.f64(double %3)
  ret double %4
}

; Function Attrs: mustprogress uwtable
define linkonce_odr noundef i32 @_ZNK5Ipopt10GenTMatrix8NonzerosEv(ptr noundef nonnull align 8 dereferenceable(89) %0) #0 comdat align 2 {
  %2 = alloca ptr, align 8
  store ptr %0, ptr %2, align 8
  %3 = load ptr, ptr %2, align 8
  %4 = getelementptr inbounds %"class.Ipopt::GenTMatrix", ptr %3, i32 0, i32 2
  %5 = load ptr, ptr %4, align 8
  %6 = call noundef i32 @_ZNK5Ipopt15GenTMatrixSpace8NonzerosEv(ptr noundef nonnull align 8 dereferenceable(40) %5)
  ret i32 %6
}

; Function Attrs: mustprogress uwtable
define linkonce_odr noundef ptr @_ZN5Ipopt11DenseVector6ValuesEv(ptr noundef nonnull align 8 dereferenceable(248) %0) #0 comdat align 2 {
  %2 = alloca ptr, align 8
  store ptr %0, ptr %2, align 8
  %3 = load ptr, ptr %2, align 8
  %4 = getelementptr inbounds %"class.Ipopt::DenseVector", ptr %3, i32 0, i32 4
  %5 = load i8, ptr %4, align 8
  %6 = trunc i8 %5 to i1
  br i1 %6, label %7, label %12

7:                                                ; preds = %1
  %8 = getelementptr inbounds %"class.Ipopt::DenseVector", ptr %3, i32 0, i32 5
  %9 = load i8, ptr %8, align 1
  %10 = trunc i8 %9 to i1
  br i1 %10, label %11, label %12

11:                                               ; preds = %7
  call void @_ZN5Ipopt11DenseVector22set_values_from_scalarEv(ptr noundef nonnull align 8 dereferenceable(248) %3)
  br label %12

12:                                               ; preds = %11, %7, %1
  call void @_ZN5Ipopt12TaggedObject13ObjectChangedEv(ptr noundef nonnull align 8 dereferenceable(56) %3)
  %13 = getelementptr inbounds %"class.Ipopt::DenseVector", ptr %3, i32 0, i32 4
  store i8 1, ptr %13, align 8
  %14 = getelementptr inbounds %"class.Ipopt::DenseVector", ptr %3, i32 0, i32 5
  store i8 0, ptr %14, align 1
  %15 = call noundef ptr @_ZN5Ipopt11DenseVector16values_allocatedEv(ptr noundef nonnull align 8 dereferenceable(248) %3)
  %16 = getelementptr inbounds %"class.Ipopt::DenseVector", ptr %3, i32 0, i32 2
  %17 = load ptr, ptr %16, align 8
  ret ptr %17
}

; Function Attrs: mustprogress uwtable
define linkonce_odr noundef ptr @_ZNK5Ipopt10GenTMatrix5IrowsEv(ptr noundef nonnull align 8 dereferenceable(89) %0) #0 comdat align 2 {
  %2 = alloca ptr, align 8
  store ptr %0, ptr %2, align 8
  %3 = load ptr, ptr %2, align 8
  %4 = getelementptr inbounds %"class.Ipopt::GenTMatrix", ptr %3, i32 0, i32 2
  %5 = load ptr, ptr %4, align 8
  %6 = call noundef ptr @_ZNK5Ipopt15GenTMatrixSpace5IrowsEv(ptr noundef nonnull align 8 dereferenceable(40) %5)
  ret ptr %6
}

; Function Attrs: mustprogress uwtable
define linkonce_odr noundef i32 @_ZNK5Ipopt6Matrix5NRowsEv(ptr noundef nonnull align 8 dereferenceable(69) %0) #0 comdat align 2 {
  %2 = alloca ptr, align 8
  store ptr %0, ptr %2, align 8
  %3 = load ptr, ptr %2, align 8
  %4 = getelementptr inbounds %"class.Ipopt::Matrix", ptr %3, i32 0, i32 1
  %5 = call noundef ptr @_ZNK5Ipopt8SmartPtrIKNS_11MatrixSpaceEEptEv(ptr noundef nonnull align 8 dereferenceable(8) %4)
  %6 = call noundef i32 @_ZNK5Ipopt11MatrixSpace5NRowsEv(ptr noundef nonnull align 8 dereferenceable(20) %5)
  ret i32 %6
}

; Function Attrs: mustprogress uwtable
define void @_ZNK5Ipopt10GenTMatrix18ComputeRowAMaxImplERNS_6VectorEb(ptr noundef nonnull align 8 dereferenceable(89) %0, ptr noundef nonnull align 8 dereferenceable(205) %1, i1 noundef zeroext %2) unnamed_addr #0 align 2 {
  %4 = alloca ptr, align 8
  %5 = alloca ptr, align 8
  %6 = alloca i8, align 1
  %7 = alloca ptr, align 8
  %8 = alloca ptr, align 8
  %9 = alloca ptr, align 8
  %10 = alloca ptr, align 8
  %11 = alloca i32, align 4
  store ptr %0, ptr %4, align 8
  store ptr %1, ptr %5, align 8
  %12 = zext i1 %2 to i8
  store i8 %12, ptr %6, align 1
  %13 = load ptr, ptr %4, align 8
  %14 = call noundef i32 @_ZNK5Ipopt6Matrix5NRowsEv(ptr noundef nonnull align 8 dereferenceable(69) %13)
  %15 = icmp eq i32 %14, 0
  br i1 %15, label %16, label %17

16:                                               ; preds = %3
  br label %58

17:                                               ; preds = %3
  %18 = load ptr, ptr %5, align 8
  store ptr %18, ptr %7, align 8
  %19 = call noundef ptr @_ZNK5Ipopt10GenTMatrix5IrowsEv(ptr noundef nonnull align 8 dereferenceable(89) %13)
  store ptr %19, ptr %8, align 8
  %20 = getelementptr inbounds %"class.Ipopt::GenTMatrix", ptr %13, i32 0, i32 3
  %21 = load ptr, ptr %20, align 8
  store ptr %21, ptr %9, align 8
  %22 = load ptr, ptr %7, align 8
  %23 = call noundef ptr @_ZN5Ipopt11DenseVector6ValuesEv(ptr noundef nonnull align 8 dereferenceable(248) %22)
  store ptr %23, ptr %10, align 8
  %24 = load ptr, ptr %10, align 8
  %25 = getelementptr inbounds double, ptr %24, i32 -1
  store ptr %25, ptr %10, align 8
  store i32 0, ptr %11, align 4
  br label %26

26:                                               ; preds = %55, %17
  %27 = load i32, ptr %11, align 4
  %28 = call noundef i32 @_ZNK5Ipopt10GenTMatrix8NonzerosEv(ptr noundef nonnull align 8 dereferenceable(89) %13)
  %29 = icmp slt i32 %27, %28
  br i1 %29, label %30, label %58

30:                                               ; preds = %26
  %31 = load ptr, ptr %10, align 8
  %32 = load ptr, ptr %8, align 8
  %33 = load i32, ptr %11, align 4
  %34 = sext i32 %33 to i64
  %35 = getelementptr inbounds i32, ptr %32, i64 %34
  %36 = load i32, ptr %35, align 4
  %37 = sext i32 %36 to i64
  %38 = getelementptr inbounds double, ptr %31, i64 %37
  %39 = load double, ptr %38, align 8
  %40 = load ptr, ptr %9, align 8
  %41 = load i32, ptr %11, align 4
  %42 = sext i32 %41 to i64
  %43 = getelementptr inbounds double, ptr %40, i64 %42
  %44 = load double, ptr %43, align 8
  %45 = call noundef double @_ZSt3absd(double noundef %44)
  %46 = call noundef double @_ZN5Ipopt3MaxIdEET_S1_S1_(double noundef %39, double noundef %45)
  %47 = load ptr, ptr %10, align 8
  %48 = load ptr, ptr %8, align 8
  %49 = load i32, ptr %11, align 4
  %50 = sext i32 %49 to i64
  %51 = getelementptr inbounds i32, ptr %48, i64 %50
  %52 = load i32, ptr %51, align 4
  %53 = sext i32 %52 to i64
  %54 = getelementptr inbounds double, ptr %47, i64 %53
  store double %46, ptr %54, align 8
  br label %55

55:                                               ; preds = %30
  %56 = load i32, ptr %11, align 4
  %57 = add nsw i32 %56, 1
  store i32 %57, ptr %11, align 4
  br label %26, !llvm.loop !9

58:                                               ; preds = %26, %16
  ret void
}